target datalayout = "e-m:e-p270:32:32-p271:32:32-p272:64:64-i64:64-i128:128-f80:128-n8:16:32:64-S128"
target triple = "x86_64-pc-linux-gnu"

%struct._packet_info = type { ptr, ptr, i32, i32, %struct.nstime_t, %struct.nstime_t, %struct.nstime_t, i8, ptr, ptr, ptr, ptr, %struct._address, %struct._address, %struct._address, %struct._address, %struct._address, %struct._address, i32, ptr, i8, [3 x i8], %struct.anon, i32, i32, i32, i32, ptr, i8, ptr, ptr, i16, i16, i32, i32, i16, i32, i32, ptr, ptr, ptr, i8, i8, i16, i16, i16, i32, i16, i16, ptr, ptr, ptr, ptr, ptr, i32, i32 }
%struct.nstime_t = type { i64, i32 }
%struct._address = type { i32, i32, ptr, ptr }
%struct.anon = type { i8, [3 x i8] }

@hf_do_irp_string_len = internal global i32 0, align 4
@hf_do_irp_string_value = internal global i32 0, align 4
@ett_do_irp_string = internal global i32 0, align 4
@.str.382 = private unnamed_addr constant [12 x i8] c"%s, Len: %u\00", align 1
@.str.383 = private unnamed_addr constant [15 x i8] c"empty, Len: %u\00", align 1

; Function Attrs: null_pointer_is_valid sspstrong uwtable
define internal i32 @decode_string(ptr noundef %0, ptr noundef %1, ptr noundef %2, i32 noundef %3, i32 noundef %4, ptr noundef %5) #0 {
  %7 = alloca ptr, align 8
  %8 = alloca ptr, align 8
  %9 = alloca ptr, align 8
  %10 = alloca i32, align 4
  %11 = alloca i32, align 4
  %12 = alloca ptr, align 8
  %13 = alloca i32, align 4
  %14 = alloca ptr, align 8
  %15 = alloca ptr, align 8
  %16 = alloca ptr, align 8
  store ptr %0, ptr %7, align 8
  store ptr %1, ptr %8, align 8
  store ptr %2, ptr %9, align 8
  store i32 %3, ptr %10, align 4
  store i32 %4, ptr %11, align 4
  store ptr %5, ptr %12, align 8
  call void @llvm.lifetime.start.p0(i64 4, ptr %13) #8
  %17 = load ptr, ptr %7, align 8
  %18 = load i32, ptr %10, align 4
  %19 = call i32 @tvb_get_int32(ptr noundef %17, i32 noundef %18, i32 noundef 0)
  store i32 %19, ptr %13, align 4
  call void @llvm.lifetime.start.p0(i64 8, ptr %14) #8
  call void @llvm.lifetime.start.p0(i64 8, ptr %15) #8
  %20 = load ptr, ptr %8, align 8
  %21 = getelementptr inbounds nuw %struct._packet_info, ptr %20, i32 0, i32 51
  %22 = load ptr, ptr %21, align 8
  %23 = load ptr, ptr %7, align 8
  %24 = load i32, ptr %10, align 4
  %25 = add i32 %24, 4
  %26 = load i32, ptr %13, align 4
  %27 = call ptr @tvb_get_string_enc(ptr noundef %22, ptr noundef %23, i32 noundef %25, i32 noundef %26, i32 noundef 2)
  store ptr %27, ptr %15, align 8
  %28 = load i32, ptr %13, align 4
  %29 = icmp ne i32 %28, 0
  br i1 %29, label %30, label %41

30:                                               ; preds = %6
  %31 = load ptr, ptr %9, align 8
  %32 = load i32, ptr %11, align 4
  %33 = load ptr, ptr %7, align 8
  %34 = load i32, ptr %10, align 4
  %35 = load i32, ptr %13, align 4
  %36 = add i32 %35, 4
  %37 = load ptr, ptr %15, align 8
  %38 = load ptr, ptr %15, align 8
  %39 = load i32, ptr %13, align 4
  %40 = call ptr (ptr, i32, ptr, i32, i32, ptr, ptr, ...) @proto_tree_add_string_format_value(ptr noundef %31, i32 noundef %32, ptr noundef %33, i32 noundef %34, i32 noundef %36, ptr noundef %37, ptr noundef @.str.382, ptr noundef %38, i32 noundef %39)
  store ptr %40, ptr %14, align 8
  br label %51

41:                                               ; preds = %6
  %42 = load ptr, ptr %9, align 8
  %43 = load i32, ptr %11, align 4
  %44 = load ptr, ptr %7, align 8
  %45 = load i32, ptr %10, align 4
  %46 = load i32, ptr %13, align 4
  %47 = add i32 %46, 4
  %48 = load ptr, ptr %15, align 8
  %49 = load i32, ptr %13, align 4
  %50 = call ptr (ptr, i32, ptr, i32, i32, ptr, ptr, ...) @proto_tree_add_string_format_value(ptr noundef %42, i32 noundef %43, ptr noundef %44, i32 noundef %45, i32 noundef %47, ptr noundef %48, ptr noundef @.str.383, i32 noundef %49)
  store ptr %50, ptr %14, align 8
  br label %51

51:                                               ; preds = %41, %30
  call void @llvm.lifetime.start.p0(i64 8, ptr %16) #8
  %52 = load ptr, ptr %14, align 8
  %53 = load i32, ptr @ett_do_irp_string, align 4
  %54 = call ptr @proto_item_add_subtree(ptr noundef %52, i32 noundef %53)
  store ptr %54, ptr %16, align 8
  %55 = load ptr, ptr %16, align 8
  %56 = load i32, ptr @hf_do_irp_string_len, align 4
  %57 = load ptr, ptr %7, align 8
  %58 = load i32, ptr %10, align 4
  %59 = call ptr @proto_tree_add_item(ptr noundef %55, i32 noundef %56, ptr noundef %57, i32 noundef %58, i32 noundef 4, i32 noundef 0)
  %60 = load ptr, ptr %16, align 8
  %61 = load i32, ptr @hf_do_irp_string_value, align 4
  %62 = load ptr, ptr %7, align 8
  %63 = load i32, ptr %10, align 4
  %64 = add i32 %63, 4
  %65 = load i32, ptr %13, align 4
  %66 = call ptr @proto_tree_add_item(ptr noundef %60, i32 noundef %61, ptr noundef %62, i32 noundef %64, i32 noundef %65, i32 noundef 2)
  %67 = load ptr, ptr %12, align 8
  %68 = icmp ne ptr %67, null
  br i1 %68, label %69, label %72

69:                                               ; preds = %51
  %70 = load ptr, ptr %15, align 8
  %71 = load ptr, ptr %12, align 8
  store ptr %70, ptr %71, align 8
  br label %72

72:                                               ; preds = %69, %51
  %73 = load i32, ptr %13, align 4
  %74 = add i32 %73, 4
  call void @llvm.lifetime.end.p0(i64 8, ptr %16) #8
  call void @llvm.lifetime.end.p0(i64 8, ptr %15) #8
  call void @llvm.lifetime.end.p0(i64 8, ptr %14) #8
  call void @llvm.lifetime.end.p0(i64 4, ptr %13) #8
  ret i32 %74
}