; Function Attrs: null_pointer_is_valid sspstrong uwtable
define internal fastcc noundef i32 @decode_string(ptr noundef %0, ptr noundef readonly captures(none) %1, ptr noundef %2, i32 noundef %3, i32 noundef %4, ptr noundef writeonly captures(address_is_null) %5) unnamed_addr #0 {
  %7 = tail call i32 @tvb_get_int32(ptr noundef %0, i32 noundef %3, i32 noundef 0)
  %8 = getelementptr inbounds nuw i8, ptr %1, i64 408
  %9 = load ptr, ptr %8, align 8
  %10 = add i32 %3, 4
  %11 = tail call ptr @tvb_get_string_enc(ptr noundef %9, ptr noundef %0, i32 noundef %10, i32 noundef %7, i32 noundef 2)
  %.not = icmp eq i32 %7, 0
  br i1 %.not, label %15, label %12

12:                                               ; preds = %6
  %13 = add i32 %7, 4
  %14 = tail call ptr (ptr, i32, ptr, i32, i32, ptr, ptr, ...) @proto_tree_add_string_format_value(ptr noundef %2, i32 noundef %4, ptr noundef %0, i32 noundef %3, i32 noundef %13, ptr noundef %11, ptr noundef nonnull @.str.382, ptr noundef %11, i32 noundef %7)
  br label %17

15:                                               ; preds = %6
  %16 = tail call ptr (ptr, i32, ptr, i32, i32, ptr, ptr, ...) @proto_tree_add_string_format_value(ptr noundef %2, i32 noundef %4, ptr noundef %0, i32 noundef %3, i32 noundef 4, ptr noundef %11, ptr noundef nonnull @.str.383, i32 noundef 0)
  br label %17

17:                                               ; preds = %15, %12
  %.0 = phi ptr [ %14, %12 ], [ %16, %15 ]
  %18 = load i32, ptr @ett_do_irp_string, align 4
  %19 = tail call ptr @proto_item_add_subtree(ptr noundef %.0, i32 noundef %18)
  %20 = load i32, ptr @hf_do_irp_string_len, align 4
  %21 = tail call ptr @proto_tree_add_item(ptr noundef %19, i32 noundef %20, ptr noundef %0, i32 noundef %3, i32 noundef 4, i32 noundef 0)
  %22 = load i32, ptr @hf_do_irp_string_value, align 4
  %23 = tail call ptr @proto_tree_add_item(ptr noundef %19, i32 noundef %22, ptr noundef %0, i32 noundef %10, i32 noundef %7, i32 noundef 2)
  %.not35 = icmp eq ptr %5, null
  br i1 %.not35, label %25, label %24

24:                                               ; preds = %17
  store ptr %11, ptr %5, align 8
  br label %25

25:                                               ; preds = %24, %17
  %26 = add i32 %7, 4
  ret i32 %26
}